target datalayout = "e-m:e-p270:32:32-p271:32:32-p272:64:64-i64:64-i128:128-f80:128-n8:16:32:64-S128"
target triple = "x86_64-pc-linux-gnu"

%struct.HeapTupleData = type { i32, %struct.ItemPointerData, i32, ptr }
%struct.ItemPointerData = type { %struct.BlockIdData, i16 }
%struct.BlockIdData = type { i16, i16 }
%struct.RelationData = type { %struct.RelFileLocator, ptr, i32, i32, i8, i8, i8, i8, i8, i32, i32, i32, i32, ptr, ptr, i32, %struct.LockInfoData, ptr, ptr, ptr, ptr, ptr, i8, ptr, ptr, ptr, ptr, ptr, ptr, i32, ptr, i8, ptr, ptr, i32, i8, i32, ptr, i8, ptr, ptr, ptr, ptr, ptr, ptr, ptr, i32, ptr, ptr, ptr, ptr, ptr, ptr, ptr, ptr, ptr, ptr, ptr, ptr, ptr, ptr, ptr, ptr, ptr, ptr, ptr, i32, i8, ptr }
%struct.RelFileLocator = type { i32, i32, i32 }
%struct.LockInfoData = type { %struct.LockRelId }
%struct.LockRelId = type { i32, i32 }
%struct.HeapTupleHeaderData = type { %union.anon.1, %struct.ItemPointerData, i16, i16, i8, [0 x i8] }
%union.anon.1 = type { %struct.HeapTupleFields }
%struct.HeapTupleFields = type { i32, i32, %union.anon.2 }
%union.anon.2 = type { i32 }
%struct.xl_heap_new_cid = type { i32, i32, i32, i32, %struct.RelFileLocator, %struct.ItemPointerData }

; Function Attrs: inlinehint nounwind uwtable
define internal zeroext i1 @HEAP_XMAX_IS_LOCKED_ONLY(i16 noundef zeroext %0) #3 {
  %2 = alloca i16, align 2
  store i16 %0, ptr %2, align 2
  %3 = load i16, ptr %2, align 2
  %4 = zext i16 %3 to i32
  %5 = and i32 %4, 128
  %6 = icmp ne i32 %5, 0
  br i1 %6, label %12, label %7

7:                                                ; preds = %1
  %8 = load i16, ptr %2, align 2
  %9 = zext i16 %8 to i32
  %10 = and i32 %9, 4176
  %11 = icmp eq i32 %10, 64
  br label %12

12:                                               ; preds = %7, %1
  %13 = phi i1 [ true, %1 ], [ %11, %7 ]
  ret i1 %13
}

; Function Attrs: inlinehint nounwind uwtable
define internal i32 @HeapTupleHeaderGetRawCommandId(ptr noundef %0) #3 {
  %2 = alloca ptr, align 8
  store ptr %0, ptr %2, align 8
  %3 = load ptr, ptr %2, align 8
  %4 = getelementptr inbounds nuw %struct.HeapTupleHeaderData, ptr %3, i32 0, i32 0
  %5 = getelementptr inbounds nuw %struct.HeapTupleFields, ptr %4, i32 0, i32 2
  %6 = load i32, ptr %5, align 4
  ret i32 %6
}

; Function Attrs: nounwind uwtable
define internal i64 @log_heap_new_cid(ptr noundef %0, ptr noundef %1) #0 {
  %3 = alloca ptr, align 8
  %4 = alloca ptr, align 8
  %5 = alloca %struct.xl_heap_new_cid, align 4
  %6 = alloca i64, align 8
  %7 = alloca ptr, align 8
  store ptr %0, ptr %3, align 8
  store ptr %1, ptr %4, align 8
  call void @llvm.lifetime.start.p0(i64 36, ptr %5) #10
  call void @llvm.lifetime.start.p0(i64 8, ptr %6) #10
  call void @llvm.lifetime.start.p0(i64 8, ptr %7) #10
  %8 = load ptr, ptr %4, align 8
  %9 = getelementptr inbounds nuw %struct.HeapTupleData, ptr %8, i32 0, i32 3
  %10 = load ptr, ptr %9, align 8
  store ptr %10, ptr %7, align 8
  %11 = call i32 @GetTopTransactionId()
  %12 = getelementptr inbounds nuw %struct.xl_heap_new_cid, ptr %5, i32 0, i32 0
  store i32 %11, ptr %12, align 4
  %13 = getelementptr inbounds nuw %struct.xl_heap_new_cid, ptr %5, i32 0, i32 4
  %14 = load ptr, ptr %3, align 8
  %15 = getelementptr inbounds nuw %struct.RelationData, ptr %14, i32 0, i32 0
  call void @llvm.memcpy.p0.p0.i64(ptr align 4 %13, ptr align 8 %15, i64 12, i1 false)
  %16 = getelementptr inbounds nuw %struct.xl_heap_new_cid, ptr %5, i32 0, i32 5
  %17 = load ptr, ptr %4, align 8
  %18 = getelementptr inbounds nuw %struct.HeapTupleData, ptr %17, i32 0, i32 1
  call void @llvm.memcpy.p0.p0.i64(ptr align 4 %16, ptr align 4 %18, i64 6, i1 false)
  %19 = load ptr, ptr %7, align 8
  %20 = getelementptr inbounds nuw %struct.HeapTupleHeaderData, ptr %19, i32 0, i32 3
  %21 = load i16, ptr %20, align 4
  %22 = zext i16 %21 to i32
  %23 = and i32 %22, 32
  %24 = icmp ne i32 %23, 0
  br i1 %24, label %25, label %35

25:                                               ; preds = %2
  %26 = load ptr, ptr %7, align 8
  %27 = call i32 @HeapTupleHeaderGetCmin(ptr noundef %26)
  %28 = getelementptr inbounds nuw %struct.xl_heap_new_cid, ptr %5, i32 0, i32 1
  store i32 %27, ptr %28, align 4
  %29 = load ptr, ptr %7, align 8
  %30 = call i32 @HeapTupleHeaderGetCmax(ptr noundef %29)
  %31 = getelementptr inbounds nuw %struct.xl_heap_new_cid, ptr %5, i32 0, i32 2
  store i32 %30, ptr %31, align 4
  %32 = load ptr, ptr %7, align 8
  %33 = call i32 @HeapTupleHeaderGetRawCommandId(ptr noundef %32)
  %34 = getelementptr inbounds nuw %struct.xl_heap_new_cid, ptr %5, i32 0, i32 3
  store i32 %33, ptr %34, align 4
  br label %59

35:                                               ; preds = %2
  %36 = load ptr, ptr %7, align 8
  %37 = getelementptr inbounds nuw %struct.HeapTupleHeaderData, ptr %36, i32 0, i32 3
  %38 = load i16, ptr %37, align 4
  %39 = zext i16 %38 to i32
  %40 = and i32 %39, 2048
  %41 = icmp ne i32 %40, 0
  br i1 %41, label %47, label %42

42:                                               ; preds = %35
  %43 = load ptr, ptr %7, align 8
  %44 = getelementptr inbounds nuw %struct.HeapTupleHeaderData, ptr %43, i32 0, i32 3
  %45 = load i16, ptr %44, align 4
  %46 = call zeroext i1 @HEAP_XMAX_IS_LOCKED_ONLY(i16 noundef zeroext %45)
  br i1 %46, label %47, label %52

47:                                               ; preds = %42, %35
  %48 = load ptr, ptr %7, align 8
  %49 = call i32 @HeapTupleHeaderGetRawCommandId(ptr noundef %48)
  %50 = getelementptr inbounds nuw %struct.xl_heap_new_cid, ptr %5, i32 0, i32 1
  store i32 %49, ptr %50, align 4
  %51 = getelementptr inbounds nuw %struct.xl_heap_new_cid, ptr %5, i32 0, i32 2
  store i32 -1, ptr %51, align 4
  br label %57

52:                                               ; preds = %42
  %53 = getelementptr inbounds nuw %struct.xl_heap_new_cid, ptr %5, i32 0, i32 1
  store i32 -1, ptr %53, align 4
  %54 = load ptr, ptr %7, align 8
  %55 = call i32 @HeapTupleHeaderGetRawCommandId(ptr noundef %54)
  %56 = getelementptr inbounds nuw %struct.xl_heap_new_cid, ptr %5, i32 0, i32 2
  store i32 %55, ptr %56, align 4
  br label %57

57:                                               ; preds = %52, %47
  %58 = getelementptr inbounds nuw %struct.xl_heap_new_cid, ptr %5, i32 0, i32 3
  store i32 -1, ptr %58, align 4
  br label %59

59:                                               ; preds = %57, %25
  call void @XLogBeginInsert()
  call void @XLogRegisterData(ptr noundef %5, i32 noundef 34)
  %60 = call i64 @XLogInsert(i8 noundef zeroext 9, i8 noundef zeroext 112)
  store i64 %60, ptr %6, align 8
  %61 = load i64, ptr %6, align 8
  call void @llvm.lifetime.end.p0(i64 8, ptr %7) #10
  call void @llvm.lifetime.end.p0(i64 8, ptr %6) #10
  call void @llvm.lifetime.end.p0(i64 36, ptr %5) #10
  ret i64 %61
}