; Function Attrs: nounwind uwtable
define internal fastcc void @log_heap_new_cid(ptr noundef readonly captures(none) %0, ptr noundef readonly captures(none) %1) unnamed_addr #2 {
  %3 = alloca %struct.xl_heap_new_cid, align 4
  call void @llvm.lifetime.start.p0(i64 36, ptr nonnull %3) #13
  %4 = getelementptr inbounds nuw i8, ptr %1, i64 16
  %5 = load ptr, ptr %4, align 8
  %6 = tail call i32 @GetTopTransactionId() #13
  store i32 %6, ptr %3, align 4
  %7 = getelementptr inbounds nuw i8, ptr %3, i64 16
  call void @llvm.memcpy.p0.p0.i64(ptr noundef nonnull align 4 dereferenceable(12) %7, ptr noundef nonnull align 8 dereferenceable(12) %0, i64 12, i1 false)
  %8 = getelementptr inbounds nuw i8, ptr %3, i64 28
  %9 = getelementptr inbounds nuw i8, ptr %1, i64 4
  call void @llvm.memcpy.p0.p0.i64(ptr noundef nonnull align 4 dereferenceable(6) %8, ptr noundef nonnull align 4 dereferenceable(6) %9, i64 6, i1 false)
  %10 = getelementptr inbounds nuw i8, ptr %5, i64 20
  %11 = load i16, ptr %10, align 4
  %12 = zext i16 %11 to i32
  %13 = and i32 %12, 32
  %.not = icmp eq i32 %13, 0
  br i1 %.not, label %20, label %14

14:                                               ; preds = %2
  %15 = tail call i32 @HeapTupleHeaderGetCmin(ptr noundef nonnull %5) #13
  %16 = getelementptr inbounds nuw i8, ptr %3, i64 4
  store i32 %15, ptr %16, align 4
  %17 = tail call i32 @HeapTupleHeaderGetCmax(ptr noundef nonnull %5) #13
  %18 = getelementptr inbounds nuw i8, ptr %3, i64 8
  store i32 %17, ptr %18, align 4
  %19 = getelementptr i8, ptr %5, i64 8
  %.val = load i32, ptr %19, align 4
  br label %36

20:                                               ; preds = %2
  %21 = and i32 %12, 2048
  %.not11 = icmp eq i32 %21, 0
  br i1 %.not11, label %22, label %28

22:                                               ; preds = %20
  %23 = and i32 %12, 128
  %24 = icmp ne i32 %23, 0
  %25 = and i32 %12, 4176
  %26 = icmp eq i32 %25, 64
  %27 = or i1 %24, %26
  br i1 %27, label %28, label %31

28:                                               ; preds = %22, %20
  %29 = getelementptr i8, ptr %5, i64 8
  %.val12 = load i32, ptr %29, align 4
  %30 = getelementptr inbounds nuw i8, ptr %3, i64 4
  store i32 %.val12, ptr %30, align 4
  br label %34

31:                                               ; preds = %22
  %32 = getelementptr inbounds nuw i8, ptr %3, i64 4
  store i32 -1, ptr %32, align 4
  %33 = getelementptr i8, ptr %5, i64 8
  %.val13 = load i32, ptr %33, align 4
  br label %34

34:                                               ; preds = %31, %28
  %.val13.sink = phi i32 [ %.val13, %31 ], [ -1, %28 ]
  %35 = getelementptr inbounds nuw i8, ptr %3, i64 8
  store i32 %.val13.sink, ptr %35, align 4
  br label %36

36:                                               ; preds = %34, %14
  %.sink = phi i32 [ -1, %34 ], [ %.val, %14 ]
  %37 = getelementptr inbounds nuw i8, ptr %3, i64 12
  store i32 %.sink, ptr %37, align 4
  tail call void @XLogBeginInsert() #13
  call void @XLogRegisterData(ptr noundef nonnull %3, i32 noundef 34) #13
  %38 = call i64 @XLogInsert(i8 noundef zeroext 9, i8 noundef zeroext 112) #13
  call void @llvm.lifetime.end.p0(i64 36, ptr nonnull %3) #13
  ret void
}